; Function Attrs: mustprogress uwtable
define dso_local void @_ZN11cmXMLWriter5CDataERKNSt7__cxx1112basic_stringIcSt11char_traitsIcESaIcEEE(ptr noundef nonnull align 8 captures(none) dereferenceable(83) %0, ptr noundef nonnull readonly align 8 captures(none) dereferenceable(32) %1) local_unnamed_addr #0 align 2 {
  tail call void @_ZN11cmXMLWriter17CloseStartElementEv(ptr noundef nonnull align 8 dereferenceable(83) %0)
  %3 = getelementptr inbounds nuw i8, ptr %0, i64 82
  store i8 1, ptr %3, align 2, !tbaa !45
  %4 = load ptr, ptr %0, align 8, !tbaa !31
  %5 = tail call noundef nonnull align 8 dereferenceable(8) ptr @_ZSt16__ostream_insertIcSt11char_traitsIcEERSt13basic_ostreamIT_T0_ES6_PKS3_l(ptr noundef nonnull align 8 dereferenceable(8) %4, ptr noundef nonnull @.str.6, i64 noundef 9)
  %6 = load ptr, ptr %1, align 8, !tbaa !25
  %7 = getelementptr inbounds nuw i8, ptr %1, i64 8
  %8 = load i64, ptr %7, align 8, !tbaa !26
  %9 = tail call noundef nonnull align 8 dereferenceable(8) ptr @_ZSt16__ostream_insertIcSt11char_traitsIcEERSt13basic_ostreamIT_T0_ES6_PKS3_l(ptr noundef nonnull align 8 dereferenceable(8) %4, ptr noundef %6, i64 noundef %8)
  %10 = tail call noundef nonnull align 8 dereferenceable(8) ptr @_ZSt16__ostream_insertIcSt11char_traitsIcEERSt13basic_ostreamIT_T0_ES6_PKS3_l(ptr noundef nonnull align 8 dereferenceable(8) %9, ptr noundef nonnull @.str.7, i64 noundef 3)
  ret void
}